target datalayout = "e-m:e-p270:32:32-p271:32:32-p272:64:64-i64:64-i128:128-f80:128-n8:16:32:64-S128"
target triple = "x86_64-pc-linux-gnu"

%"class.icu_77::UVector32" = type { %"class.icu_77::UObject", i32, i32, i32, ptr }
%"class.icu_77::UObject" = type { ptr }
%"class.icu_77::RuleBasedBreakIterator::BreakCache" = type { ptr, ptr, i32, i32, i32, i32, [128 x i32], [128 x i16], %"class.icu_77::UVector32" }

; Function Attrs: inlinehint mustprogress nounwind uwtable
define linkonce_odr noundef i32 @_ZN6icu_7722RuleBasedBreakIterator10BreakCache12modChunkSizeEi(i32 noundef %0) #5 comdat align 2 {
  %2 = alloca i32, align 4
  store i32 %0, ptr %2, align 4, !tbaa !22
  %3 = load i32, ptr %2, align 4, !tbaa !22
  %4 = and i32 %3, 127
  ret i32 %4
}

; Function Attrs: mustprogress uwtable
define void @_ZN6icu_7722RuleBasedBreakIterator10BreakCache12addFollowingEiiNS1_20UpdatePositionValuesE(ptr noundef nonnull align 8 dereferenceable(832) %0, i32 noundef %1, i32 noundef %2, i32 noundef %3) #0 align 2 {
  %5 = alloca ptr, align 8
  %6 = alloca i32, align 4
  %7 = alloca i32, align 4
  %8 = alloca i32, align 4
  %9 = alloca i32, align 4
  store ptr %0, ptr %5, align 8, !tbaa !81
  store i32 %1, ptr %6, align 4, !tbaa !22
  store i32 %2, ptr %7, align 4, !tbaa !22
  store i32 %3, ptr %8, align 4, !tbaa !107
  %10 = load ptr, ptr %5, align 8
  call void @llvm.lifetime.start.p0(i64 4, ptr %9) #8
  %11 = getelementptr inbounds nuw %"class.icu_77::RuleBasedBreakIterator::BreakCache", ptr %10, i32 0, i32 3
  %12 = load i32, ptr %11, align 4, !tbaa !85
  %13 = add nsw i32 %12, 1
  %14 = call noundef i32 @_ZN6icu_7722RuleBasedBreakIterator10BreakCache12modChunkSizeEi(i32 noundef %13)
  store i32 %14, ptr %9, align 4, !tbaa !22
  %15 = load i32, ptr %9, align 4, !tbaa !22
  %16 = getelementptr inbounds nuw %"class.icu_77::RuleBasedBreakIterator::BreakCache", ptr %10, i32 0, i32 2
  %17 = load i32, ptr %16, align 8, !tbaa !84
  %18 = icmp eq i32 %15, %17
  br i1 %18, label %19, label %25

19:                                               ; preds = %4
  %20 = getelementptr inbounds nuw %"class.icu_77::RuleBasedBreakIterator::BreakCache", ptr %10, i32 0, i32 2
  %21 = load i32, ptr %20, align 8, !tbaa !84
  %22 = add nsw i32 %21, 6
  %23 = call noundef i32 @_ZN6icu_7722RuleBasedBreakIterator10BreakCache12modChunkSizeEi(i32 noundef %22)
  %24 = getelementptr inbounds nuw %"class.icu_77::RuleBasedBreakIterator::BreakCache", ptr %10, i32 0, i32 2
  store i32 %23, ptr %24, align 8, !tbaa !84
  br label %25

25:                                               ; preds = %19, %4
  %26 = load i32, ptr %6, align 4, !tbaa !22
  %27 = getelementptr inbounds nuw %"class.icu_77::RuleBasedBreakIterator::BreakCache", ptr %10, i32 0, i32 6
  %28 = load i32, ptr %9, align 4, !tbaa !22
  %29 = sext i32 %28 to i64
  %30 = getelementptr inbounds [128 x i32], ptr %27, i64 0, i64 %29
  store i32 %26, ptr %30, align 4, !tbaa !22
  %31 = load i32, ptr %7, align 4, !tbaa !22
  %32 = trunc i32 %31 to i16
  %33 = getelementptr inbounds nuw %"class.icu_77::RuleBasedBreakIterator::BreakCache", ptr %10, i32 0, i32 7
  %34 = load i32, ptr %9, align 4, !tbaa !22
  %35 = sext i32 %34 to i64
  %36 = getelementptr inbounds [128 x i16], ptr %33, i64 0, i64 %35
  store i16 %32, ptr %36, align 2, !tbaa !63
  %37 = load i32, ptr %9, align 4, !tbaa !22
  %38 = getelementptr inbounds nuw %"class.icu_77::RuleBasedBreakIterator::BreakCache", ptr %10, i32 0, i32 3
  store i32 %37, ptr %38, align 4, !tbaa !85
  %39 = load i32, ptr %8, align 4, !tbaa !107
  %40 = icmp eq i32 %39, 1
  br i1 %40, label %41, label %46

41:                                               ; preds = %25
  %42 = load i32, ptr %9, align 4, !tbaa !22
  %43 = getelementptr inbounds nuw %"class.icu_77::RuleBasedBreakIterator::BreakCache", ptr %10, i32 0, i32 5
  store i32 %42, ptr %43, align 4, !tbaa !87
  %44 = load i32, ptr %6, align 4, !tbaa !22
  %45 = getelementptr inbounds nuw %"class.icu_77::RuleBasedBreakIterator::BreakCache", ptr %10, i32 0, i32 4
  store i32 %44, ptr %45, align 8, !tbaa !86
  br label %47

46:                                               ; preds = %25
  br label %47

47:                                               ; preds = %46, %41
  call void @llvm.lifetime.end.p0(i64 4, ptr %9) #8
  ret void
}