; Function Attrs: mustprogress nofree norecurse nosync nounwind willreturn memory(argmem: readwrite) uwtable
define void @_ZN6icu_7722RuleBasedBreakIterator10BreakCache12addFollowingEiiNS1_20UpdatePositionValuesE(ptr noundef nonnull align 8 captures(none) dereferenceable(832) %0, i32 noundef %1, i32 noundef %2, i32 noundef %3) local_unnamed_addr #10 align 2 {
  %5 = getelementptr inbounds nuw i8, ptr %0, i64 20
  %6 = load i32, ptr %5, align 4, !tbaa !74
  %7 = add nsw i32 %6, 1
  %8 = and i32 %7, 127
  %9 = getelementptr inbounds nuw i8, ptr %0, i64 16
  %10 = load i32, ptr %9, align 8, !tbaa !73
  %11 = icmp eq i32 %8, %10
  br i1 %11, label %12, label %15

12:                                               ; preds = %4
  %13 = add i32 %6, 7
  %14 = and i32 %13, 127
  store i32 %14, ptr %9, align 8, !tbaa !73
  br label %15

15:                                               ; preds = %12, %4
  %16 = getelementptr inbounds nuw i8, ptr %0, i64 32
  %17 = zext nneg i32 %8 to i64
  %18 = getelementptr inbounds nuw [128 x i32], ptr %16, i64 0, i64 %17
  store i32 %1, ptr %18, align 4, !tbaa !17
  %19 = trunc i32 %2 to i16
  %20 = getelementptr inbounds nuw i8, ptr %0, i64 544
  %21 = getelementptr inbounds nuw [128 x i16], ptr %20, i64 0, i64 %17
  store i16 %19, ptr %21, align 2, !tbaa !71
  store i32 %8, ptr %5, align 4, !tbaa !74
  %22 = icmp eq i32 %3, 1
  br i1 %22, label %23, label %26

23:                                               ; preds = %15
  %24 = getelementptr inbounds nuw i8, ptr %0, i64 28
  store i32 %8, ptr %24, align 4, !tbaa !76
  %25 = getelementptr inbounds nuw i8, ptr %0, i64 24
  store i32 %1, ptr %25, align 8, !tbaa !75
  br label %26

26:                                               ; preds = %15, %23
  ret void
}